; Function Attrs: nounwind uwtable
define noundef ptr @ggml_cos(ptr noundef captures(none) %0, ptr noundef %1) local_unnamed_addr #4 {
  %3 = load i32, ptr %1, align 8, !tbaa !40
  %4 = getelementptr inbounds nuw i8, ptr %1, i64 16
  %5 = tail call fastcc noundef ptr @ggml_new_tensor_impl(ptr noundef %0, i32 noundef %3, i32 noundef 4, ptr noundef nonnull readonly %4, ptr noundef null, i64 noundef 0)
  %6 = getelementptr inbounds nuw i8, ptr %5, i64 80
  store i32 12, ptr %6, align 8, !tbaa !55
  %7 = getelementptr inbounds nuw i8, ptr %5, i64 152
  store ptr %1, ptr %7, align 8, !tbaa !81
  ret ptr %5
}